target datalayout = "e-m:e-p270:32:32-p271:32:32-p272:64:64-i64:64-i128:128-f80:128-n8:16:32:64-S128"
target triple = "x86_64-pc-linux-gnu"

%struct.FT_Vector_ = type { i64, i64 }
%struct.SDF_Shape_ = type { ptr, ptr }
%struct.SDF_Contour_ = type { %struct.FT_Vector_, ptr, ptr }

@null_contour = internal constant %struct.SDF_Contour_ zeroinitializer, align 8

; Function Attrs: nounwind uwtable
define internal i32 @sdf_contour_new(ptr noundef %0, ptr noundef %1) #0 {
  %3 = alloca ptr, align 8
  %4 = alloca ptr, align 8
  %5 = alloca i32, align 4
  %6 = alloca ptr, align 8
  store ptr %0, ptr %3, align 8, !tbaa !38
  store ptr %1, ptr %4, align 8, !tbaa !189
  call void @llvm.lifetime.start.p0(i64 4, ptr %5) #7
  store i32 0, ptr %5, align 4, !tbaa !31
  call void @llvm.lifetime.start.p0(i64 8, ptr %6) #7
  store ptr null, ptr %6, align 8, !tbaa !167
  %7 = load ptr, ptr %3, align 8, !tbaa !38
  %8 = icmp ne ptr %7, null
  br i1 %8, label %9, label %12

9:                                                ; preds = %2
  %10 = load ptr, ptr %4, align 8, !tbaa !189
  %11 = icmp ne ptr %10, null
  br i1 %11, label %13, label %12

12:                                               ; preds = %9, %2
  store i32 6, ptr %5, align 4, !tbaa !31
  br label %23

13:                                               ; preds = %9
  %14 = load ptr, ptr %3, align 8, !tbaa !38
  %15 = call ptr @ft_mem_qalloc(ptr noundef %14, i64 noundef 32, ptr noundef %5)
  store ptr %15, ptr %6, align 8, !tbaa !167
  %16 = load i32, ptr %5, align 4, !tbaa !31
  %17 = icmp ne i32 %16, 0
  br i1 %17, label %22, label %18

18:                                               ; preds = %13
  %19 = load ptr, ptr %6, align 8, !tbaa !167
  call void @llvm.memcpy.p0.p0.i64(ptr align 8 %19, ptr align 8 @null_contour, i64 32, i1 false), !tbaa.struct !191
  %20 = load ptr, ptr %6, align 8, !tbaa !167
  %21 = load ptr, ptr %4, align 8, !tbaa !189
  store ptr %20, ptr %21, align 8, !tbaa !167
  br label %22

22:                                               ; preds = %18, %13
  br label %23

23:                                               ; preds = %22, %12
  %24 = load i32, ptr %5, align 4, !tbaa !31
  call void @llvm.lifetime.end.p0(i64 8, ptr %6) #7
  call void @llvm.lifetime.end.p0(i64 4, ptr %5) #7
  ret i32 %24
}

; Function Attrs: nounwind uwtable
define internal i32 @sdf_move_to(ptr noundef %0, ptr noundef %1) #0 {
  %3 = alloca ptr, align 8
  %4 = alloca ptr, align 8
  %5 = alloca ptr, align 8
  %6 = alloca ptr, align 8
  %7 = alloca i32, align 4
  %8 = alloca ptr, align 8
  store ptr %0, ptr %3, align 8, !tbaa !32
  store ptr %1, ptr %4, align 8, !tbaa !85
  call void @llvm.lifetime.start.p0(i64 8, ptr %5) #7
  %9 = load ptr, ptr %4, align 8, !tbaa !85
  store ptr %9, ptr %5, align 8, !tbaa !121
  call void @llvm.lifetime.start.p0(i64 8, ptr %6) #7
  store ptr null, ptr %6, align 8, !tbaa !167
  call void @llvm.lifetime.start.p0(i64 4, ptr %7) #7
  store i32 0, ptr %7, align 4, !tbaa !31
  call void @llvm.lifetime.start.p0(i64 8, ptr %8) #7
  %10 = load ptr, ptr %5, align 8, !tbaa !121
  %11 = getelementptr inbounds nuw %struct.SDF_Shape_, ptr %10, i32 0, i32 0
  %12 = load ptr, ptr %11, align 8, !tbaa !169
  store ptr %12, ptr %8, align 8, !tbaa !38
  %13 = load ptr, ptr %3, align 8, !tbaa !32
  %14 = icmp ne ptr %13, null
  br i1 %14, label %15, label %18

15:                                               ; preds = %2
  %16 = load ptr, ptr %4, align 8, !tbaa !85
  %17 = icmp ne ptr %16, null
  br i1 %17, label %19, label %18

18:                                               ; preds = %15, %2
  store i32 6, ptr %7, align 4, !tbaa !31
  br label %40

19:                                               ; preds = %15
  br label %20

20:                                               ; preds = %19
  %21 = load ptr, ptr %8, align 8, !tbaa !38
  %22 = call i32 @sdf_contour_new(ptr noundef %21, ptr noundef %6)
  store i32 %22, ptr %7, align 4, !tbaa !31
  %23 = load i32, ptr %7, align 4, !tbaa !31
  %24 = icmp ne i32 %23, 0
  br i1 %24, label %25, label %26

25:                                               ; preds = %20
  br label %40

26:                                               ; preds = %20
  br label %27

27:                                               ; preds = %26
  br label %28

28:                                               ; preds = %27
  %29 = load ptr, ptr %6, align 8, !tbaa !167
  %30 = getelementptr inbounds nuw %struct.SDF_Contour_, ptr %29, i32 0, i32 0
  %31 = load ptr, ptr %3, align 8, !tbaa !32
  call void @llvm.memcpy.p0.p0.i64(ptr align 8 %30, ptr align 8 %31, i64 16, i1 false), !tbaa.struct !146
  %32 = load ptr, ptr %5, align 8, !tbaa !121
  %33 = getelementptr inbounds nuw %struct.SDF_Shape_, ptr %32, i32 0, i32 1
  %34 = load ptr, ptr %33, align 8, !tbaa !171
  %35 = load ptr, ptr %6, align 8, !tbaa !167
  %36 = getelementptr inbounds nuw %struct.SDF_Contour_, ptr %35, i32 0, i32 2
  store ptr %34, ptr %36, align 8, !tbaa !172
  %37 = load ptr, ptr %6, align 8, !tbaa !167
  %38 = load ptr, ptr %5, align 8, !tbaa !121
  %39 = getelementptr inbounds nuw %struct.SDF_Shape_, ptr %38, i32 0, i32 1
  store ptr %37, ptr %39, align 8, !tbaa !171
  br label %40

40:                                               ; preds = %28, %25, %18
  %41 = load i32, ptr %7, align 4, !tbaa !31
  call void @llvm.lifetime.end.p0(i64 8, ptr %8) #7
  call void @llvm.lifetime.end.p0(i64 4, ptr %7) #7
  call void @llvm.lifetime.end.p0(i64 8, ptr %6) #7
  call void @llvm.lifetime.end.p0(i64 8, ptr %5) #7
  ret i32 %41
}