; Function Attrs: nounwind uwtable
define internal i32 @sdf_move_to(ptr noundef readonly %0, ptr noundef captures(none) %1) #2 {
  %3 = alloca i32, align 4
  %.not = icmp eq ptr %0, null
  br i1 %.not, label %13, label %4

4:                                                ; preds = %2
  %5 = load ptr, ptr %1, align 8, !tbaa !99
  call void @llvm.lifetime.start.p0(i64 4, ptr nonnull %3) #11
  store i32 0, ptr %3, align 4, !tbaa !21
  %.not.i = icmp eq ptr %5, null
  br i1 %.not.i, label %sdf_contour_new.exit.thread, label %6

6:                                                ; preds = %4
  %7 = call ptr @ft_mem_qalloc(ptr noundef nonnull %5, i64 noundef 32, ptr noundef nonnull %3) #11
  %8 = load i32, ptr %3, align 4, !tbaa !21
  %.not8.i = icmp eq i32 %8, 0
  br i1 %.not8.i, label %9, label %sdf_contour_new.exit.thread

sdf_contour_new.exit.thread:                      ; preds = %6, %4
  %.ph = phi i32 [ 6, %4 ], [ %8, %6 ]
  call void @llvm.lifetime.end.p0(i64 4, ptr nonnull %3) #11
  br label %13

9:                                                ; preds = %6
  call void @llvm.memset.p0.i64(ptr noundef nonnull align 8 dereferenceable(32) %7, i8 0, i64 32, i1 false)
  call void @llvm.lifetime.end.p0(i64 4, ptr nonnull %3) #11
  call void @llvm.memcpy.p0.p0.i64(ptr noundef nonnull align 8 dereferenceable(16) %7, ptr noundef nonnull align 8 dereferenceable(16) %0, i64 16, i1 false), !tbaa.struct !119
  %10 = getelementptr inbounds nuw i8, ptr %1, i64 8
  %11 = load ptr, ptr %10, align 8, !tbaa !129
  %12 = getelementptr inbounds nuw i8, ptr %7, i64 24
  store ptr %11, ptr %12, align 8, !tbaa !130
  store ptr %7, ptr %10, align 8, !tbaa !129
  br label %13

13:                                               ; preds = %sdf_contour_new.exit.thread, %2, %9
  %.0 = phi i32 [ 0, %9 ], [ 6, %2 ], [ %.ph, %sdf_contour_new.exit.thread ]
  ret i32 %.0
}